target datalayout = "e-m:e-p270:32:32-p271:32:32-p272:64:64-i64:64-i128:128-f80:128-n8:16:32:64-S128"
target triple = "x86_64-pc-linux-gnu"

%"class.icu_77::numparse::impl::ParsedNumber" = type { %"class.icu_77::number::impl::DecimalQuantity", i32, i32, %"class.icu_77::UnicodeString", %"class.icu_77::UnicodeString", [4 x i16] }
%"class.icu_77::number::impl::DecimalQuantity" = type <{ %"class.icu_77::IFixedDecimal", i8, [3 x i8], i32, i32, i8, i8, [2 x i8], double, i32, i32, i32, i32, %union.anon, i8, i8, [6 x i8] }>
%"class.icu_77::IFixedDecimal" = type { ptr }
%union.anon = type { %struct.anon }
%struct.anon = type { ptr, i32 }
%"class.icu_77::UnicodeString" = type { %"class.icu_77::Replaceable", %"union.icu_77::UnicodeString::StackBufferOrFields" }
%"class.icu_77::Replaceable" = type { %"class.icu_77::UObject" }
%"class.icu_77::UObject" = type { ptr }
%"union.icu_77::UnicodeString::StackBufferOrFields" = type { %struct.anon.1, [32 x i8] }
%struct.anon.1 = type { i16, i32, i32, ptr }
%"class.icu_77::numparse::impl::RequireDecimalSeparatorValidator" = type <{ %"class.icu_77::numparse::impl::ValidationMatcher", i8, [7 x i8] }>
%"class.icu_77::numparse::impl::ValidationMatcher" = type { %"class.icu_77::numparse::impl::NumberParseMatcher" }
%"class.icu_77::numparse::impl::NumberParseMatcher" = type { ptr }

; Function Attrs: mustprogress nounwind uwtable
define void @_ZNK6icu_778numparse4impl32RequireDecimalSeparatorValidator11postProcessERNS1_12ParsedNumberE(ptr noundef nonnull align 8 dereferenceable(9) %0, ptr noundef nonnull align 8 dereferenceable(216) %1) unnamed_addr #2 align 2 {
  %3 = alloca ptr, align 8
  %4 = alloca ptr, align 8
  %5 = alloca i8, align 1
  store ptr %0, ptr %3, align 8, !tbaa !31
  store ptr %1, ptr %4, align 8, !tbaa !8
  %6 = load ptr, ptr %3, align 8
  call void @llvm.lifetime.start.p0(i64 1, ptr %5) #10
  %7 = load ptr, ptr %4, align 8, !tbaa !8
  %8 = getelementptr inbounds nuw %"class.icu_77::numparse::impl::ParsedNumber", ptr %7, i32 0, i32 2
  %9 = load i32, ptr %8, align 4, !tbaa !10
  %10 = and i32 %9, 32
  %11 = icmp ne i32 0, %10
  %12 = zext i1 %11 to i8
  store i8 %12, ptr %5, align 1, !tbaa !33
  %13 = load i8, ptr %5, align 1, !tbaa !33, !range !34, !noundef !35
  %14 = trunc i8 %13 to i1
  %15 = zext i1 %14 to i32
  %16 = getelementptr inbounds nuw %"class.icu_77::numparse::impl::RequireDecimalSeparatorValidator", ptr %6, i32 0, i32 1
  %17 = load i8, ptr %16, align 8, !tbaa !36, !range !34, !noundef !35
  %18 = trunc i8 %17 to i1
  %19 = zext i1 %18 to i32
  %20 = icmp ne i32 %15, %19
  br i1 %20, label %21, label %26

21:                                               ; preds = %2
  %22 = load ptr, ptr %4, align 8, !tbaa !8
  %23 = getelementptr inbounds nuw %"class.icu_77::numparse::impl::ParsedNumber", ptr %22, i32 0, i32 2
  %24 = load i32, ptr %23, align 4, !tbaa !10
  %25 = or i32 %24, 256
  store i32 %25, ptr %23, align 4, !tbaa !10
  br label %26

26:                                               ; preds = %21, %2
  call void @llvm.lifetime.end.p0(i64 1, ptr %5) #10
  ret void
}