; Function Attrs: mustprogress nofree norecurse nosync nounwind willreturn memory(argmem: readwrite) uwtable
define void @_ZNK6icu_778numparse4impl32RequireDecimalSeparatorValidator11postProcessERNS1_12ParsedNumberE(ptr noundef nonnull readonly align 8 captures(none) dereferenceable(9) %0, ptr noundef nonnull align 8 captures(none) dereferenceable(216) %1) unnamed_addr #0 align 2 {
  %3 = getelementptr inbounds nuw i8, ptr %1, i64 76
  %4 = load i32, ptr %3, align 4, !tbaa !6
  %5 = lshr i32 %4, 5
  %.lobit = and i32 %5, 1
  %6 = getelementptr inbounds nuw i8, ptr %0, i64 8
  %7 = load i8, ptr %6, align 8, !tbaa !20, !range !24, !noundef !25
  %8 = zext nneg i8 %7 to i32
  %.not = icmp eq i32 %.lobit, %8
  br i1 %.not, label %11, label %9

9:                                                ; preds = %2
  %10 = or i32 %4, 256
  store i32 %10, ptr %3, align 4, !tbaa !6
  br label %11

11:                                               ; preds = %9, %2
  ret void
}